target datalayout = "e-m:e-p270:32:32-p271:32:32-p272:64:64-i64:64-i128:128-f80:128-n8:16:32:64-S128"
target triple = "x86_64-pc-linux-gnu"

%struct.AVChannelLayout = type { i32, i32, %union.anon, ptr }
%union.anon = type { i64 }

; Function Attrs: alwaysinline nounwind willreturn memory(none) uwtable
define internal i32 @av_popcount_c(i32 noundef %0) #3 {
  %2 = alloca i32, align 4
  store i32 %0, ptr %2, align 4, !tbaa !14
  %3 = load i32, ptr %2, align 4, !tbaa !14
  %4 = lshr i32 %3, 1
  %5 = and i32 %4, 1431655765
  %6 = load i32, ptr %2, align 4, !tbaa !14
  %7 = sub i32 %6, %5
  store i32 %7, ptr %2, align 4, !tbaa !14
  %8 = load i32, ptr %2, align 4, !tbaa !14
  %9 = and i32 %8, 858993459
  %10 = load i32, ptr %2, align 4, !tbaa !14
  %11 = lshr i32 %10, 2
  %12 = and i32 %11, 858993459
  %13 = add i32 %9, %12
  store i32 %13, ptr %2, align 4, !tbaa !14
  %14 = load i32, ptr %2, align 4, !tbaa !14
  %15 = load i32, ptr %2, align 4, !tbaa !14
  %16 = lshr i32 %15, 4
  %17 = add i32 %14, %16
  %18 = and i32 %17, 252645135
  store i32 %18, ptr %2, align 4, !tbaa !14
  %19 = load i32, ptr %2, align 4, !tbaa !14
  %20 = lshr i32 %19, 8
  %21 = load i32, ptr %2, align 4, !tbaa !14
  %22 = add i32 %21, %20
  store i32 %22, ptr %2, align 4, !tbaa !14
  %23 = load i32, ptr %2, align 4, !tbaa !14
  %24 = load i32, ptr %2, align 4, !tbaa !14
  %25 = lshr i32 %24, 16
  %26 = add i32 %23, %25
  %27 = and i32 %26, 63
  ret i32 %27
}

; Function Attrs: alwaysinline nounwind willreturn memory(none) uwtable
define internal i32 @av_popcount64_c(i64 noundef %0) #3 {
  %2 = alloca i64, align 8
  store i64 %0, ptr %2, align 8, !tbaa !46
  %3 = load i64, ptr %2, align 8, !tbaa !46
  %4 = trunc i64 %3 to i32
  %5 = call i32 @av_popcount_c(i32 noundef %4) #5
  %6 = load i64, ptr %2, align 8, !tbaa !46
  %7 = lshr i64 %6, 32
  %8 = trunc i64 %7 to i32
  %9 = call i32 @av_popcount_c(i32 noundef %8) #5
  %10 = add nsw i32 %5, %9
  ret i32 %10
}

; Function Attrs: nounwind uwtable
define i32 @ff_mov_get_channel_layout_from_config(i32 noundef %0, ptr noundef %1, i64 noundef %2) #0 {
  %4 = alloca i32, align 4
  %5 = alloca i32, align 4
  %6 = alloca ptr, align 8
  %7 = alloca i64, align 8
  %8 = alloca i32, align 4
  %9 = alloca i32, align 4
  %10 = alloca i32, align 4
  store i32 %0, ptr %5, align 4, !tbaa !14
  store ptr %1, ptr %6, align 8, !tbaa !34
  store i64 %2, ptr %7, align 8, !tbaa !46
  %11 = load i32, ptr %5, align 4, !tbaa !14
  %12 = icmp sgt i32 %11, 0
  br i1 %12, label %13, label %42

13:                                               ; preds = %3
  call void @llvm.lifetime.start.p0(i64 4, ptr %8) #4
  call void @llvm.lifetime.start.p0(i64 4, ptr %9) #4
  %14 = load i64, ptr %7, align 8, !tbaa !46
  %15 = call i32 @av_popcount64_c(i64 noundef %14) #5
  store i32 %15, ptr %9, align 4, !tbaa !14
  %16 = load ptr, ptr %6, align 8, !tbaa !34
  %17 = getelementptr inbounds nuw %struct.AVChannelLayout, ptr %16, i32 0, i32 1
  %18 = load i32, ptr %17, align 4, !tbaa !38
  %19 = icmp sle i32 %18, 0
  br i1 %19, label %27, label %20

20:                                               ; preds = %13
  %21 = load ptr, ptr %6, align 8, !tbaa !34
  %22 = getelementptr inbounds nuw %struct.AVChannelLayout, ptr %21, i32 0, i32 1
  %23 = load i32, ptr %22, align 4, !tbaa !38
  %24 = load i32, ptr %9, align 4, !tbaa !14
  %25 = sub nsw i32 65535, %24
  %26 = icmp sgt i32 %23, %25
  br i1 %26, label %27, label %28

27:                                               ; preds = %20, %13
  store i32 -1094995529, ptr %4, align 4
  store i32 1, ptr %10, align 4
  br label %41

28:                                               ; preds = %20
  %29 = load i32, ptr %5, align 4, !tbaa !14
  %30 = shl i32 %29, 16
  %31 = load ptr, ptr %6, align 8, !tbaa !34
  %32 = getelementptr inbounds nuw %struct.AVChannelLayout, ptr %31, i32 0, i32 1
  %33 = load i32, ptr %32, align 4, !tbaa !38
  %34 = load i32, ptr %9, align 4, !tbaa !14
  %35 = add nsw i32 %33, %34
  %36 = or i32 %30, %35
  store i32 %36, ptr %8, align 4, !tbaa !14
  %37 = load ptr, ptr %6, align 8, !tbaa !34
  %38 = load i32, ptr %8, align 4, !tbaa !14
  %39 = load i64, ptr %7, align 8, !tbaa !46
  %40 = call i32 @mov_get_channel_layout(ptr noundef %37, i32 noundef %38, i64 noundef %39, ptr noundef @iso_ch_layout_map)
  store i32 %40, ptr %4, align 4
  store i32 1, ptr %10, align 4
  br label %41

41:                                               ; preds = %28, %27
  call void @llvm.lifetime.end.p0(i64 4, ptr %9) #4
  call void @llvm.lifetime.end.p0(i64 4, ptr %8) #4
  br label %43

42:                                               ; preds = %3
  store i32 1, ptr %4, align 4
  br label %43

43:                                               ; preds = %42, %41
  %44 = load i32, ptr %4, align 4
  ret i32 %44
}