; Function Attrs: nounwind uwtable
define i32 @ff_mov_get_channel_layout_from_config(i32 noundef %0, ptr noundef %1, i64 noundef %2) local_unnamed_addr #0 {
  %4 = icmp sgt i32 %0, 0
  br i1 %4, label %5, label %50

5:                                                ; preds = %3
  %6 = trunc i64 %2 to i32
  %7 = lshr i32 %6, 1
  %8 = and i32 %7, 1431655765
  %9 = sub i32 %6, %8
  %10 = and i32 %9, 858993459
  %11 = lshr i32 %9, 2
  %12 = and i32 %11, 858993459
  %13 = add nuw nsw i32 %12, %10
  %14 = lshr i32 %13, 4
  %15 = add nuw nsw i32 %14, %13
  %16 = and i32 %15, 252645135
  %17 = lshr i32 %16, 8
  %18 = add nuw nsw i32 %17, %16
  %19 = lshr i32 %18, 16
  %20 = add nuw nsw i32 %19, %18
  %21 = and i32 %20, 63
  %22 = lshr i64 %2, 32
  %23 = trunc nuw i64 %22 to i32
  %24 = lshr i32 %23, 1
  %25 = and i32 %24, 1431655765
  %26 = sub i32 %23, %25
  %27 = and i32 %26, 858993459
  %28 = lshr i32 %26, 2
  %29 = and i32 %28, 858993459
  %30 = add nuw nsw i32 %29, %27
  %31 = lshr i32 %30, 4
  %32 = add nuw nsw i32 %31, %30
  %33 = and i32 %32, 252645135
  %34 = lshr i32 %33, 8
  %35 = add nuw nsw i32 %34, %33
  %36 = lshr i32 %35, 16
  %37 = add nuw nsw i32 %36, %35
  %38 = and i32 %37, 63
  %39 = add nuw nsw i32 %38, %21
  %40 = getelementptr inbounds nuw i8, ptr %1, i64 4
  %41 = load i32, ptr %40, align 4, !tbaa !21
  %42 = icmp slt i32 %41, 1
  %43 = xor i32 %39, 65535
  %44 = icmp sgt i32 %41, %43
  %or.cond = select i1 %42, i1 true, i1 %44
  br i1 %or.cond, label %50, label %45

45:                                               ; preds = %5
  %46 = shl i32 %0, 16
  %47 = add nuw nsw i32 %41, %39
  %48 = or i32 %47, %46
  %49 = tail call fastcc i32 @mov_get_channel_layout(ptr noundef nonnull %1, i32 noundef %48, i64 noundef %2, ptr noundef nonnull @iso_ch_layout_map)
  br label %50

50:                                               ; preds = %3, %45, %5
  %.1 = phi i32 [ %49, %45 ], [ -1094995529, %5 ], [ 1, %3 ]
  ret i32 %.1
}